target datalayout = "e-m:e-p270:32:32-p271:32:32-p272:64:64-i64:64-i128:128-f80:128-n8:16:32:64-S128"
target triple = "x86_64-pc-linux-gnu"

%struct.SwsInternal = type { %struct.SwsContext, ptr, ptr, ptr, ptr, i32, [2 x ptr], i32, i32, ptr, i32, i32, i32, i32, i32, i32, i32, i32, i32, i32, i32, i32, i32, i32, i32, i32, i32, i32, ptr, ptr, %struct.RangeList, [3 x ptr], [2 x [4 x i32]], [2 x [4 x ptr]], i32, double, i32, ptr, ptr, i32, [2 x i32], i32, ptr, ptr, [256 x i32], [256 x i32], [256 x float], i32, i32, ptr, i32, ptr, ptr, ptr, ptr, ptr, ptr, ptr, ptr, i32, i32, i32, i32, i32, i32, ptr, ptr, i32, i32, i32, ptr, [8 x i8], [1280 x i32], [1280 x ptr], [1280 x ptr], [1280 x ptr], [176 x i32], [4 x ptr], i32, i32, i32, [4 x i32], [4 x i32], i32, i32, i32, i32, i32, i32, i32, i32, i32, i32, i64, i64, i64, i64, i64, i64, i64, i64, i64, i64, i64, [1024 x i32], [1024 x i32], i32, i64, i64, i64, i64, i64, [1024 x i32], i64, i64, [8 x i16], [8 x i32], ptr, ptr, i32, ptr, ptr, ptr, ptr, [3 x [4 x i16]], [3 x [4 x i16]], ptr, ptr, ptr, ptr, ptr, ptr, ptr, ptr, ptr, ptr, ptr, ptr, ptr, ptr, ptr, ptr, ptr, ptr, ptr, ptr, i32, i32, i64, i64, i32, ptr, i32, ptr, i32, i32, i32, i32, i32, ptr }
%struct.SwsContext = type { ptr, ptr, i32, [2 x double], i32, i32, i32, i32, i32, i32, i32, i32, i32, i32, i32, i32, i32, i32, i32, i32, i32 }
%struct.RangeList = type { ptr, i32, i32 }

; Function Attrs: alwaysinline nounwind willreturn memory(none) uwtable
define internal zeroext i8 @av_clip_uint8_c(i32 noundef %0) #9 {
  %2 = alloca i8, align 1
  %3 = alloca i32, align 4
  store i32 %0, ptr %3, align 4, !tbaa !14
  %4 = load i32, ptr %3, align 4, !tbaa !14
  %5 = and i32 %4, -256
  %6 = icmp ne i32 %5, 0
  br i1 %6, label %7, label %12

7:                                                ; preds = %1
  %8 = load i32, ptr %3, align 4, !tbaa !14
  %9 = xor i32 %8, -1
  %10 = ashr i32 %9, 31
  %11 = trunc i32 %10 to i8
  store i8 %11, ptr %2, align 1
  br label %15

12:                                               ; preds = %1
  %13 = load i32, ptr %3, align 4, !tbaa !14
  %14 = trunc i32 %13 to i8
  store i8 %14, ptr %2, align 1
  br label %15

15:                                               ; preds = %12, %7
  %16 = load i8, ptr %2, align 1
  ret i8 %16
}

; Function Attrs: nounwind uwtable
define void @ff_update_palette(ptr noundef %0, ptr noundef %1) #0 {
  %3 = alloca ptr, align 8
  %4 = alloca ptr, align 8
  %5 = alloca i32, align 4
  %6 = alloca i32, align 4
  %7 = alloca i32, align 4
  %8 = alloca i32, align 4
  %9 = alloca i32, align 4
  %10 = alloca i32, align 4
  %11 = alloca i32, align 4
  %12 = alloca i32, align 4
  %13 = alloca i32, align 4
  store ptr %0, ptr %3, align 8, !tbaa !4
  store ptr %1, ptr %4, align 8, !tbaa !12
  call void @llvm.lifetime.start.p0(i64 4, ptr %5) #11
  store i32 0, ptr %5, align 4, !tbaa !14
  br label %14

14:                                               ; preds = %259, %2
  %15 = load i32, ptr %5, align 4, !tbaa !14
  %16 = icmp slt i32 %15, 256
  br i1 %16, label %18, label %17

17:                                               ; preds = %14
  call void @llvm.lifetime.end.p0(i64 4, ptr %5) #11
  br label %262

18:                                               ; preds = %14
  call void @llvm.lifetime.start.p0(i64 4, ptr %6) #11
  call void @llvm.lifetime.start.p0(i64 4, ptr %7) #11
  call void @llvm.lifetime.start.p0(i64 4, ptr %8) #11
  call void @llvm.lifetime.start.p0(i64 4, ptr %9) #11
  call void @llvm.lifetime.start.p0(i64 4, ptr %10) #11
  call void @llvm.lifetime.start.p0(i64 4, ptr %11) #11
  call void @llvm.lifetime.start.p0(i64 4, ptr %12) #11
  store i32 255, ptr %12, align 4, !tbaa !14
  %19 = load ptr, ptr %3, align 8, !tbaa !4
  %20 = getelementptr inbounds nuw %struct.SwsInternal, ptr %19, i32 0, i32 0
  %21 = getelementptr inbounds nuw %struct.SwsContext, ptr %20, i32 0, i32 12
  %22 = load i32, ptr %21, align 8, !tbaa !49
  %23 = icmp eq i32 %22, 11
  br i1 %23, label %24, label %41

24:                                               ; preds = %18
  call void @llvm.lifetime.start.p0(i64 4, ptr %13) #11
  %25 = load ptr, ptr %4, align 8, !tbaa !12
  %26 = load i32, ptr %5, align 4, !tbaa !14
  %27 = sext i32 %26 to i64
  %28 = getelementptr inbounds i32, ptr %25, i64 %27
  %29 = load i32, ptr %28, align 4, !tbaa !14
  store i32 %29, ptr %13, align 4, !tbaa !14
  %30 = load i32, ptr %13, align 4, !tbaa !14
  %31 = lshr i32 %30, 24
  %32 = and i32 %31, 255
  store i32 %32, ptr %12, align 4, !tbaa !14
  %33 = load i32, ptr %13, align 4, !tbaa !14
  %34 = lshr i32 %33, 16
  %35 = and i32 %34, 255
  store i32 %35, ptr %6, align 4, !tbaa !14
  %36 = load i32, ptr %13, align 4, !tbaa !14
  %37 = lshr i32 %36, 8
  %38 = and i32 %37, 255
  store i32 %38, ptr %7, align 4, !tbaa !14
  %39 = load i32, ptr %13, align 4, !tbaa !14
  %40 = and i32 %39, 255
  store i32 %40, ptr %8, align 4, !tbaa !14
  call void @llvm.lifetime.end.p0(i64 4, ptr %13) #11
  br label %121

41:                                               ; preds = %18
  %42 = load ptr, ptr %3, align 8, !tbaa !4
  %43 = getelementptr inbounds nuw %struct.SwsInternal, ptr %42, i32 0, i32 0
  %44 = getelementptr inbounds nuw %struct.SwsContext, ptr %43, i32 0, i32 12
  %45 = load i32, ptr %44, align 8, !tbaa !49
  %46 = icmp eq i32 %45, 20
  br i1 %46, label %47, label %58

47:                                               ; preds = %41
  %48 = load i32, ptr %5, align 4, !tbaa !14
  %49 = ashr i32 %48, 5
  %50 = mul nsw i32 %49, 36
  store i32 %50, ptr %6, align 4, !tbaa !14
  %51 = load i32, ptr %5, align 4, !tbaa !14
  %52 = ashr i32 %51, 2
  %53 = and i32 %52, 7
  %54 = mul nsw i32 %53, 36
  store i32 %54, ptr %7, align 4, !tbaa !14
  %55 = load i32, ptr %5, align 4, !tbaa !14
  %56 = and i32 %55, 3
  %57 = mul nsw i32 %56, 85
  store i32 %57, ptr %8, align 4, !tbaa !14
  br label %120

58:                                               ; preds = %41
  %59 = load ptr, ptr %3, align 8, !tbaa !4
  %60 = getelementptr inbounds nuw %struct.SwsInternal, ptr %59, i32 0, i32 0
  %61 = getelementptr inbounds nuw %struct.SwsContext, ptr %60, i32 0, i32 12
  %62 = load i32, ptr %61, align 8, !tbaa !49
  %63 = icmp eq i32 %62, 17
  br i1 %63, label %64, label %75

64:                                               ; preds = %58
  %65 = load i32, ptr %5, align 4, !tbaa !14
  %66 = ashr i32 %65, 6
  %67 = mul nsw i32 %66, 85
  store i32 %67, ptr %8, align 4, !tbaa !14
  %68 = load i32, ptr %5, align 4, !tbaa !14
  %69 = ashr i32 %68, 3
  %70 = and i32 %69, 7
  %71 = mul nsw i32 %70, 36
  store i32 %71, ptr %7, align 4, !tbaa !14
  %72 = load i32, ptr %5, align 4, !tbaa !14
  %73 = and i32 %72, 7
  %74 = mul nsw i32 %73, 36
  store i32 %74, ptr %6, align 4, !tbaa !14
  br label %119

75:                                               ; preds = %58
  %76 = load ptr, ptr %3, align 8, !tbaa !4
  %77 = getelementptr inbounds nuw %struct.SwsInternal, ptr %76, i32 0, i32 0
  %78 = getelementptr inbounds nuw %struct.SwsContext, ptr %77, i32 0, i32 12
  %79 = load i32, ptr %78, align 8, !tbaa !49
  %80 = icmp eq i32 %79, 22
  br i1 %80, label %81, label %92

81:                                               ; preds = %75
  %82 = load i32, ptr %5, align 4, !tbaa !14
  %83 = ashr i32 %82, 3
  %84 = mul nsw i32 %83, 255
  store i32 %84, ptr %6, align 4, !tbaa !14
  %85 = load i32, ptr %5, align 4, !tbaa !14
  %86 = ashr i32 %85, 1
  %87 = and i32 %86, 3
  %88 = mul nsw i32 %87, 85
  store i32 %88, ptr %7, align 4, !tbaa !14
  %89 = load i32, ptr %5, align 4, !tbaa !14
  %90 = and i32 %89, 1
  %91 = mul nsw i32 %90, 255
  store i32 %91, ptr %8, align 4, !tbaa !14
  br label %118

92:                                               ; preds = %75
  %93 = load ptr, ptr %3, align 8, !tbaa !4
  %94 = getelementptr inbounds nuw %struct.SwsInternal, ptr %93, i32 0, i32 0
  %95 = getelementptr inbounds nuw %struct.SwsContext, ptr %94, i32 0, i32 12
  %96 = load i32, ptr %95, align 8, !tbaa !49
  %97 = icmp eq i32 %96, 8
  br i1 %97, label %104, label %98

98:                                               ; preds = %92
  %99 = load ptr, ptr %3, align 8, !tbaa !4
  %100 = getelementptr inbounds nuw %struct.SwsInternal, ptr %99, i32 0, i32 0
  %101 = getelementptr inbounds nuw %struct.SwsContext, ptr %100, i32 0, i32 12
  %102 = load i32, ptr %101, align 8, !tbaa !49
  %103 = icmp eq i32 %102, 56
  br i1 %103, label %104, label %106

104:                                              ; preds = %98, %92
  %105 = load i32, ptr %5, align 4, !tbaa !14
  store i32 %105, ptr %8, align 4, !tbaa !14
  store i32 %105, ptr %7, align 4, !tbaa !14
  store i32 %105, ptr %6, align 4, !tbaa !14
  br label %117

106:                                              ; preds = %98
  %107 = load i32, ptr %5, align 4, !tbaa !14
  %108 = ashr i32 %107, 3
  %109 = mul nsw i32 %108, 255
  store i32 %109, ptr %8, align 4, !tbaa !14
  %110 = load i32, ptr %5, align 4, !tbaa !14
  %111 = ashr i32 %110, 1
  %112 = and i32 %111, 3
  %113 = mul nsw i32 %112, 85
  store i32 %113, ptr %7, align 4, !tbaa !14
  %114 = load i32, ptr %5, align 4, !tbaa !14
  %115 = and i32 %114, 1
  %116 = mul nsw i32 %115, 255
  store i32 %116, ptr %6, align 4, !tbaa !14
  br label %117

117:                                              ; preds = %106, %104
  br label %118

118:                                              ; preds = %117, %81
  br label %119

119:                                              ; preds = %118, %64
  br label %120

120:                                              ; preds = %119, %47
  br label %121

121:                                              ; preds = %120, %24
  %122 = load i32, ptr %6, align 4, !tbaa !14
  %123 = mul nsw i32 8414, %122
  %124 = load i32, ptr %7, align 4, !tbaa !14
  %125 = mul nsw i32 16519, %124
  %126 = add nsw i32 %123, %125
  %127 = load i32, ptr %8, align 4, !tbaa !14
  %128 = mul nsw i32 3208, %127
  %129 = add nsw i32 %126, %128
  %130 = add nsw i32 %129, 540672
  %131 = ashr i32 %130, 15
  %132 = call zeroext i8 @av_clip_uint8_c(i32 noundef %131) #13
  %133 = zext i8 %132 to i32
  store i32 %133, ptr %9, align 4, !tbaa !14
  %134 = load i32, ptr %6, align 4, !tbaa !14
  %135 = mul nsw i32 -4865, %134
  %136 = load i32, ptr %7, align 4, !tbaa !14
  %137 = mul nsw i32 -9528, %136
  %138 = add nsw i32 %135, %137
  %139 = load i32, ptr %8, align 4, !tbaa !14
  %140 = mul nsw i32 14392, %139
  %141 = add nsw i32 %138, %140
  %142 = add nsw i32 %141, 4210688
  %143 = ashr i32 %142, 15
  %144 = call zeroext i8 @av_clip_uint8_c(i32 noundef %143) #13
  %145 = zext i8 %144 to i32
  store i32 %145, ptr %10, align 4, !tbaa !14
  %146 = load i32, ptr %6, align 4, !tbaa !14
  %147 = mul nsw i32 14392, %146
  %148 = load i32, ptr %7, align 4, !tbaa !14
  %149 = mul nsw i32 -12061, %148
  %150 = add nsw i32 %147, %149
  %151 = load i32, ptr %8, align 4, !tbaa !14
  %152 = mul nsw i32 -2332, %151
  %153 = add nsw i32 %150, %152
  %154 = add nsw i32 %153, 4210688
  %155 = ashr i32 %154, 15
  %156 = call zeroext i8 @av_clip_uint8_c(i32 noundef %155) #13
  %157 = zext i8 %156 to i32
  store i32 %157, ptr %11, align 4, !tbaa !14
  %158 = load i32, ptr %9, align 4, !tbaa !14
  %159 = load i32, ptr %10, align 4, !tbaa !14
  %160 = shl i32 %159, 8
  %161 = add nsw i32 %158, %160
  %162 = load i32, ptr %11, align 4, !tbaa !14
  %163 = shl i32 %162, 16
  %164 = add nsw i32 %161, %163
  %165 = load i32, ptr %12, align 4, !tbaa !14
  %166 = shl i32 %165, 24
  %167 = add i32 %164, %166
  %168 = load ptr, ptr %3, align 8, !tbaa !4
  %169 = getelementptr inbounds nuw %struct.SwsInternal, ptr %168, i32 0, i32 44
  %170 = load i32, ptr %5, align 4, !tbaa !14
  %171 = sext i32 %170 to i64
  %172 = getelementptr inbounds [256 x i32], ptr %169, i64 0, i64 %171
  store i32 %167, ptr %172, align 4, !tbaa !14
  %173 = load ptr, ptr %3, align 8, !tbaa !4
  %174 = getelementptr inbounds nuw %struct.SwsInternal, ptr %173, i32 0, i32 0
  %175 = getelementptr inbounds nuw %struct.SwsContext, ptr %174, i32 0, i32 13
  %176 = load i32, ptr %175, align 4, !tbaa !34
  switch i32 %176, label %242 [
    i32 26, label %177
    i32 2, label %177
    i32 25, label %193
    i32 27, label %209
    i32 71, label %225
    i32 111, label %225
    i32 28, label %241
    i32 3, label %241
  ]

177:                                              ; preds = %121, %121
  %178 = load i32, ptr %6, align 4, !tbaa !14
  %179 = load i32, ptr %7, align 4, !tbaa !14
  %180 = shl i32 %179, 8
  %181 = add nsw i32 %178, %180
  %182 = load i32, ptr %8, align 4, !tbaa !14
  %183 = shl i32 %182, 16
  %184 = add nsw i32 %181, %183
  %185 = load i32, ptr %12, align 4, !tbaa !14
  %186 = shl i32 %185, 24
  %187 = add i32 %184, %186
  %188 = load ptr, ptr %3, align 8, !tbaa !4
  %189 = getelementptr inbounds nuw %struct.SwsInternal, ptr %188, i32 0, i32 45
  %190 = load i32, ptr %5, align 4, !tbaa !14
  %191 = sext i32 %190 to i64
  %192 = getelementptr inbounds [256 x i32], ptr %189, i64 0, i64 %191
  store i32 %187, ptr %192, align 4, !tbaa !14
  br label %258

193:                                              ; preds = %121
  %194 = load i32, ptr %12, align 4, !tbaa !14
  %195 = load i32, ptr %6, align 4, !tbaa !14
  %196 = shl i32 %195, 8
  %197 = add nsw i32 %194, %196
  %198 = load i32, ptr %7, align 4, !tbaa !14
  %199 = shl i32 %198, 16
  %200 = add nsw i32 %197, %199
  %201 = load i32, ptr %8, align 4, !tbaa !14
  %202 = shl i32 %201, 24
  %203 = add i32 %200, %202
  %204 = load ptr, ptr %3, align 8, !tbaa !4
  %205 = getelementptr inbounds nuw %struct.SwsInternal, ptr %204, i32 0, i32 45
  %206 = load i32, ptr %5, align 4, !tbaa !14
  %207 = sext i32 %206 to i64
  %208 = getelementptr inbounds [256 x i32], ptr %205, i64 0, i64 %207
  store i32 %203, ptr %208, align 4, !tbaa !14
  br label %258

209:                                              ; preds = %121
  %210 = load i32, ptr %12, align 4, !tbaa !14
  %211 = load i32, ptr %8, align 4, !tbaa !14
  %212 = shl i32 %211, 8
  %213 = add nsw i32 %210, %212
  %214 = load i32, ptr %7, align 4, !tbaa !14
  %215 = shl i32 %214, 16
  %216 = add nsw i32 %213, %215
  %217 = load i32, ptr %6, align 4, !tbaa !14
  %218 = shl i32 %217, 24
  %219 = add i32 %216, %218
  %220 = load ptr, ptr %3, align 8, !tbaa !4
  %221 = getelementptr inbounds nuw %struct.SwsInternal, ptr %220, i32 0, i32 45
  %222 = load i32, ptr %5, align 4, !tbaa !14
  %223 = sext i32 %222 to i64
  %224 = getelementptr inbounds [256 x i32], ptr %221, i64 0, i64 %223
  store i32 %219, ptr %224, align 4, !tbaa !14
  br label %258

225:                                              ; preds = %121, %121
  %226 = load i32, ptr %7, align 4, !tbaa !14
  %227 = load i32, ptr %8, align 4, !tbaa !14
  %228 = shl i32 %227, 8
  %229 = add nsw i32 %226, %228
  %230 = load i32, ptr %6, align 4, !tbaa !14
  %231 = shl i32 %230, 16
  %232 = add nsw i32 %229, %231
  %233 = load i32, ptr %12, align 4, !tbaa !14
  %234 = shl i32 %233, 24
  %235 = add i32 %232, %234
  %236 = load ptr, ptr %3, align 8, !tbaa !4
  %237 = getelementptr inbounds nuw %struct.SwsInternal, ptr %236, i32 0, i32 45
  %238 = load i32, ptr %5, align 4, !tbaa !14
  %239 = sext i32 %238 to i64
  %240 = getelementptr inbounds [256 x i32], ptr %237, i64 0, i64 %239
  store i32 %235, ptr %240, align 4, !tbaa !14
  br label %258

241:                                              ; preds = %121, %121
  br label %242

242:                                              ; preds = %121, %241
  %243 = load i32, ptr %8, align 4, !tbaa !14
  %244 = load i32, ptr %7, align 4, !tbaa !14
  %245 = shl i32 %244, 8
  %246 = add nsw i32 %243, %245
  %247 = load i32, ptr %6, align 4, !tbaa !14
  %248 = shl i32 %247, 16
  %249 = add nsw i32 %246, %248
  %250 = load i32, ptr %12, align 4, !tbaa !14
  %251 = shl i32 %250, 24
  %252 = add i32 %249, %251
  %253 = load ptr, ptr %3, align 8, !tbaa !4
  %254 = getelementptr inbounds nuw %struct.SwsInternal, ptr %253, i32 0, i32 45
  %255 = load i32, ptr %5, align 4, !tbaa !14
  %256 = sext i32 %255 to i64
  %257 = getelementptr inbounds [256 x i32], ptr %254, i64 0, i64 %256
  store i32 %252, ptr %257, align 4, !tbaa !14
  br label %258

258:                                              ; preds = %242, %225, %209, %193, %177
  call void @llvm.lifetime.end.p0(i64 4, ptr %12) #11
  call void @llvm.lifetime.end.p0(i64 4, ptr %11) #11
  call void @llvm.lifetime.end.p0(i64 4, ptr %10) #11
  call void @llvm.lifetime.end.p0(i64 4, ptr %9) #11
  call void @llvm.lifetime.end.p0(i64 4, ptr %8) #11
  call void @llvm.lifetime.end.p0(i64 4, ptr %7) #11
  call void @llvm.lifetime.end.p0(i64 4, ptr %6) #11
  br label %259

259:                                              ; preds = %258
  %260 = load i32, ptr %5, align 4, !tbaa !14
  %261 = add nsw i32 %260, 1
  store i32 %261, ptr %5, align 4, !tbaa !14
  br label %14, !llvm.loop !128

262:                                              ; preds = %17
  ret void
}