; Function Attrs: nofree norecurse nosync nounwind memory(argmem: readwrite) uwtable
define void @ff_update_palette(ptr noundef captures(none) %0, ptr noundef readonly captures(none) %1) local_unnamed_addr #6 {
  %3 = getelementptr inbounds nuw i8, ptr %0, i64 72
  %4 = load i32, ptr %3, align 8, !tbaa !43
  %5 = getelementptr inbounds nuw i8, ptr %0, i64 480
  %6 = getelementptr inbounds nuw i8, ptr %0, i64 76
  %7 = load i32, ptr %6, align 4, !tbaa !28
  %8 = getelementptr inbounds nuw i8, ptr %0, i64 1504
  br label %10

9:                                                ; preds = %120
  ret void

10:                                               ; preds = %2, %120
  %indvars.iv = phi i64 [ 0, %2 ], [ %indvars.iv.next, %120 ]
  %11 = trunc nuw nsw i64 %indvars.iv to i32
  switch i32 %4, label %45 [
    i32 11, label %12
    i32 20, label %21
    i32 17, label %29
    i32 22, label %37
    i32 8, label %53
    i32 56, label %53
  ]

12:                                               ; preds = %10
  %13 = getelementptr inbounds nuw i32, ptr %1, i64 %indvars.iv
  %14 = load i32, ptr %13, align 4, !tbaa !49
  %15 = lshr i32 %14, 24
  %16 = lshr i32 %14, 16
  %17 = and i32 %16, 255
  %18 = lshr i32 %14, 8
  %19 = and i32 %18, 255
  %20 = and i32 %14, 255
  br label %53

21:                                               ; preds = %10
  %22 = lshr i32 %11, 5
  %23 = mul nuw nsw i32 %22, 36
  %24 = lshr i32 %11, 2
  %25 = and i32 %24, 7
  %26 = mul nuw nsw i32 %25, 36
  %27 = and i32 %11, 3
  %28 = mul nuw nsw i32 %27, 85
  br label %53

29:                                               ; preds = %10
  %30 = lshr i32 %11, 6
  %31 = mul nuw nsw i32 %30, 85
  %32 = lshr i32 %11, 3
  %33 = and i32 %32, 7
  %34 = mul nuw nsw i32 %33, 36
  %35 = and i32 %11, 7
  %36 = mul nuw nsw i32 %35, 36
  br label %53

37:                                               ; preds = %10
  %38 = lshr i32 %11, 3
  %39 = mul nuw nsw i32 %38, 255
  %40 = lshr i32 %11, 1
  %41 = and i32 %40, 3
  %42 = mul nuw nsw i32 %41, 85
  %43 = trunc i64 %indvars.iv to i1
  %44 = select i1 %43, i32 255, i32 0
  br label %53

45:                                               ; preds = %10
  %46 = lshr i32 %11, 3
  %47 = mul nuw nsw i32 %46, 255
  %48 = lshr i32 %11, 1
  %49 = and i32 %48, 3
  %50 = mul nuw nsw i32 %49, 85
  %51 = trunc i64 %indvars.iv to i1
  %52 = select i1 %51, i32 255, i32 0
  br label %53

53:                                               ; preds = %10, %10, %21, %37, %45, %29, %12
  %.075 = phi i32 [ %20, %12 ], [ %28, %21 ], [ %31, %29 ], [ %44, %37 ], [ %47, %45 ], [ %11, %10 ], [ %11, %10 ]
  %.074 = phi i32 [ %19, %12 ], [ %26, %21 ], [ %34, %29 ], [ %42, %37 ], [ %50, %45 ], [ %11, %10 ], [ %11, %10 ]
  %.073 = phi i32 [ %17, %12 ], [ %23, %21 ], [ %36, %29 ], [ %39, %37 ], [ %52, %45 ], [ %11, %10 ], [ %11, %10 ]
  %.072 = phi i32 [ %15, %12 ], [ 255, %21 ], [ 255, %29 ], [ 255, %37 ], [ 255, %45 ], [ 255, %10 ], [ 255, %10 ]
  %54 = mul nuw nsw i32 %.073, 8414
  %55 = mul nuw nsw i32 %.074, 16519
  %56 = mul nuw nsw i32 %.075, 3208
  %57 = add nuw nsw i32 %55, %56
  %58 = add nuw nsw i32 %57, %54
  %59 = add nuw nsw i32 %58, 540672
  %60 = lshr i32 %59, 15
  %.not.i = icmp samesign ult i32 %58, 7847936
  %61 = and i32 %60, 255
  %62 = select i1 %.not.i, i32 %61, i32 255
  %63 = mul nsw i32 %.073, -4865
  %64 = mul nsw i32 %.074, -9528
  %65 = mul nuw nsw i32 %.075, 14392
  %66 = add nuw i32 %65, 4210688
  %67 = add i32 %66, %64
  %68 = add i32 %67, %63
  %69 = ashr i32 %68, 15
  %.not.i77 = icmp ult i32 %69, 256
  %isnotneg.i = icmp sgt i32 %69, -1
  %70 = sext i1 %isnotneg.i to i32
  %.0.i78 = select i1 %.not.i77, i32 %69, i32 %70
  %71 = mul nuw nsw i32 %.073, 14392
  %72 = mul nsw i32 %.074, -12061
  %73 = mul nsw i32 %.075, -2332
  %74 = add i32 %73, 4210688
  %75 = add i32 %74, %72
  %76 = add i32 %75, %71
  %77 = ashr i32 %76, 15
  %.not.i79 = icmp ult i32 %77, 256
  %isnotneg.i80 = icmp sgt i32 %77, -1
  %78 = sext i1 %isnotneg.i80 to i32
  %.0.i81 = select i1 %.not.i79, i32 %77, i32 %78
  %79 = shl nsw i32 %.0.i78, 8
  %80 = and i32 %79, 65280
  %81 = shl i32 %.0.i81, 16
  %82 = and i32 %81, 16711680
  %83 = shl nuw i32 %.072, 24
  %84 = or disjoint i32 %62, %80
  %85 = or disjoint i32 %84, %82
  %86 = or disjoint i32 %85, %83
  %87 = getelementptr inbounds nuw [256 x i32], ptr %5, i64 0, i64 %indvars.iv
  store i32 %86, ptr %87, align 4, !tbaa !49
  switch i32 %7, label %114 [
    i32 26, label %88
    i32 2, label %88
    i32 25, label %94
    i32 27, label %101
    i32 71, label %108
    i32 111, label %108
  ]

88:                                               ; preds = %53, %53
  %89 = shl nuw nsw i32 %.074, 8
  %90 = shl nuw nsw i32 %.075, 16
  %91 = add nuw i32 %89, %90
  %92 = add i32 %91, %.073
  %93 = add i32 %92, %83
  br label %120

94:                                               ; preds = %53
  %95 = shl nuw nsw i32 %.073, 8
  %96 = shl nuw nsw i32 %.074, 16
  %97 = shl i32 %.075, 24
  %98 = add i32 %96, %97
  %99 = add i32 %98, %95
  %100 = or disjoint i32 %99, %.072
  br label %120

101:                                              ; preds = %53
  %102 = shl nuw nsw i32 %.075, 8
  %103 = shl nuw nsw i32 %.074, 16
  %104 = shl i32 %.073, 24
  %105 = add nuw i32 %103, %102
  %106 = or disjoint i32 %105, %.072
  %107 = add i32 %106, %104
  br label %120

108:                                              ; preds = %53, %53
  %109 = shl nuw nsw i32 %.075, 8
  %110 = add nuw nsw i32 %.074, %109
  %111 = shl nuw nsw i32 %.073, 16
  %112 = add nuw nsw i32 %110, %111
  %113 = add i32 %112, %83
  br label %120

114:                                              ; preds = %53
  %115 = shl nuw nsw i32 %.074, 8
  %116 = add nuw nsw i32 %115, %.075
  %117 = shl nuw nsw i32 %.073, 16
  %118 = add nuw nsw i32 %116, %117
  %119 = add i32 %118, %83
  br label %120

120:                                              ; preds = %114, %108, %101, %94, %88
  %.sink = phi i32 [ %119, %114 ], [ %113, %108 ], [ %107, %101 ], [ %100, %94 ], [ %93, %88 ]
  %121 = getelementptr inbounds nuw [256 x i32], ptr %8, i64 0, i64 %indvars.iv
  store i32 %.sink, ptr %121, align 4, !tbaa !49
  %indvars.iv.next = add nuw nsw i64 %indvars.iv, 1
  %exitcond.not = icmp eq i64 %indvars.iv.next, 256
  br i1 %exitcond.not, label %9, label %10, !llvm.loop !118
}